target datalayout = "e-m:e-p270:32:32-p271:32:32-p272:64:64-i64:64-i128:128-f80:128-n8:16:32:64-S128"
target triple = "x86_64-pc-linux-gnu"

; Function Attrs: null_pointer_is_valid sspstrong uwtable
define internal i32 @dissect_aim_directory_user_repl(ptr noundef %0, ptr noundef %1, ptr noundef %2) #0 {
  %4 = alloca ptr, align 8
  %5 = alloca ptr, align 8
  %6 = alloca ptr, align 8
  %7 = alloca i32, align 4
  store ptr %0, ptr %4, align 8
  store ptr %1, ptr %5, align 8
  store ptr %2, ptr %6, align 8
  call void @llvm.lifetime.start.p0(i64 4, ptr %7) #13
  store i32 0, ptr %7, align 4
  br label %8

8:                                                ; preds = %13, %3
  %9 = load ptr, ptr %4, align 8
  %10 = load i32, ptr %7, align 4
  %11 = call i32 @tvb_reported_length_remaining(ptr noundef %9, i32 noundef %10)
  %12 = icmp sgt i32 %11, 0
  br i1 %12, label %13, label %19

13:                                               ; preds = %8
  %14 = load ptr, ptr %4, align 8
  %15 = load ptr, ptr %5, align 8
  %16 = load i32, ptr %7, align 4
  %17 = load ptr, ptr %6, align 8
  %18 = call i32 @dissect_aim_tlv(ptr noundef %14, ptr noundef %15, i32 noundef %16, ptr noundef %17, ptr noundef @aim_client_tlvs)
  store i32 %18, ptr %7, align 4
  br label %8, !llvm.loop !24

19:                                               ; preds = %8
  %20 = load i32, ptr %7, align 4
  call void @llvm.lifetime.end.p0(i64 4, ptr %7) #13
  ret i32 %20
}